target datalayout = "e-m:e-p270:32:32-p271:32:32-p272:64:64-i64:64-i128:128-f80:128-n8:16:32:64-S128"
target triple = "x86_64-pc-linux-gnu"

%struct.st_table = type { i8, i8, i8, i32, ptr, i64, ptr, i64, i64, ptr }

; Function Attrs: nounwind sspstrong uwtable
define internal void @rebuild_cleanup(ptr noundef %0) #0 {
  %2 = alloca ptr, align 8
  store ptr %0, ptr %2, align 8, !tbaa !7
  %3 = load ptr, ptr %2, align 8, !tbaa !7
  %4 = getelementptr inbounds nuw %struct.st_table, ptr %3, i32 0, i32 7
  store i64 0, ptr %4, align 8, !tbaa !34
  %5 = load ptr, ptr %2, align 8, !tbaa !7
  %6 = getelementptr inbounds nuw %struct.st_table, ptr %5, i32 0, i32 5
  %7 = load i64, ptr %6, align 8, !tbaa !32
  %8 = load ptr, ptr %2, align 8, !tbaa !7
  %9 = getelementptr inbounds nuw %struct.st_table, ptr %8, i32 0, i32 8
  store i64 %7, ptr %9, align 8, !tbaa !33
  %10 = load ptr, ptr %2, align 8, !tbaa !7
  %11 = getelementptr inbounds nuw %struct.st_table, ptr %10, i32 0, i32 3
  %12 = load i32, ptr %11, align 4, !tbaa !30
  %13 = add i32 %12, 1
  store i32 %13, ptr %11, align 4, !tbaa !30
  ret void
}

; Function Attrs: nounwind sspstrong uwtable
define internal void @rebuild_move_table(ptr noundef %0, ptr noundef %1) #0 {
  %3 = alloca ptr, align 8
  %4 = alloca ptr, align 8
  store ptr %0, ptr %3, align 8, !tbaa !7
  store ptr %1, ptr %4, align 8, !tbaa !7
  %5 = load ptr, ptr %3, align 8, !tbaa !7
  %6 = getelementptr inbounds nuw %struct.st_table, ptr %5, i32 0, i32 0
  %7 = load i8, ptr %6, align 8, !tbaa !22
  %8 = load ptr, ptr %4, align 8, !tbaa !7
  %9 = getelementptr inbounds nuw %struct.st_table, ptr %8, i32 0, i32 0
  store i8 %7, ptr %9, align 8, !tbaa !22
  %10 = load ptr, ptr %3, align 8, !tbaa !7
  %11 = getelementptr inbounds nuw %struct.st_table, ptr %10, i32 0, i32 1
  %12 = load i8, ptr %11, align 1, !tbaa !25
  %13 = load ptr, ptr %4, align 8, !tbaa !7
  %14 = getelementptr inbounds nuw %struct.st_table, ptr %13, i32 0, i32 1
  store i8 %12, ptr %14, align 1, !tbaa !25
  %15 = load ptr, ptr %3, align 8, !tbaa !7
  %16 = getelementptr inbounds nuw %struct.st_table, ptr %15, i32 0, i32 2
  %17 = load i8, ptr %16, align 2, !tbaa !27
  %18 = load ptr, ptr %4, align 8, !tbaa !7
  %19 = getelementptr inbounds nuw %struct.st_table, ptr %18, i32 0, i32 2
  store i8 %17, ptr %19, align 2, !tbaa !27
  %20 = load ptr, ptr %4, align 8, !tbaa !7
  %21 = getelementptr inbounds nuw %struct.st_table, ptr %20, i32 0, i32 6
  %22 = load ptr, ptr %21, align 8, !tbaa !28
  call void @ruby_xfree(ptr noundef %22)
  %23 = load ptr, ptr %3, align 8, !tbaa !7
  %24 = getelementptr inbounds nuw %struct.st_table, ptr %23, i32 0, i32 6
  %25 = load ptr, ptr %24, align 8, !tbaa !28
  %26 = load ptr, ptr %4, align 8, !tbaa !7
  %27 = getelementptr inbounds nuw %struct.st_table, ptr %26, i32 0, i32 6
  store ptr %25, ptr %27, align 8, !tbaa !28
  %28 = load ptr, ptr %4, align 8, !tbaa !7
  %29 = getelementptr inbounds nuw %struct.st_table, ptr %28, i32 0, i32 9
  %30 = load ptr, ptr %29, align 8, !tbaa !29
  call void @ruby_xfree(ptr noundef %30)
  %31 = load ptr, ptr %3, align 8, !tbaa !7
  %32 = getelementptr inbounds nuw %struct.st_table, ptr %31, i32 0, i32 9
  %33 = load ptr, ptr %32, align 8, !tbaa !29
  %34 = load ptr, ptr %4, align 8, !tbaa !7
  %35 = getelementptr inbounds nuw %struct.st_table, ptr %34, i32 0, i32 9
  store ptr %33, ptr %35, align 8, !tbaa !29
  %36 = load ptr, ptr %3, align 8, !tbaa !7
  call void @ruby_xfree(ptr noundef %36)
  ret void
}

; Function Attrs: nounwind sspstrong uwtable
define dso_local ptr @rb_st_init_table_with_size(ptr noundef %0, i64 noundef %1) #0 {
  %3 = alloca ptr, align 8
  %4 = alloca i64, align 8
  %5 = alloca ptr, align 8
  store ptr %0, ptr %3, align 8, !tbaa !12
  store i64 %1, ptr %4, align 8, !tbaa !14
  call void @llvm.lifetime.start.p0(i64 8, ptr %5) #23
  %6 = call noalias nonnull ptr @ruby_xmalloc(i64 noundef 56) #24
  store ptr %6, ptr %5, align 8, !tbaa !7
  %7 = load ptr, ptr %5, align 8, !tbaa !7
  %8 = load ptr, ptr %3, align 8, !tbaa !12
  %9 = load i64, ptr %4, align 8, !tbaa !14
  %10 = call ptr @rb_st_init_existing_table_with_size(ptr noundef %7, ptr noundef %8, i64 noundef %9)
  %11 = load ptr, ptr %5, align 8, !tbaa !7
  call void @llvm.lifetime.end.p0(i64 8, ptr %5) #23
  ret ptr %11
}

; Function Attrs: inlinehint nounwind sspstrong uwtable
define internal i64 @get_allocated_entries(ptr noundef %0) #3 {
  %2 = alloca ptr, align 8
  store ptr %0, ptr %2, align 8, !tbaa !7
  %3 = load ptr, ptr %2, align 8, !tbaa !7
  %4 = getelementptr inbounds nuw %struct.st_table, ptr %3, i32 0, i32 0
  %5 = load i8, ptr %4, align 8, !tbaa !22
  %6 = zext i8 %5 to i32
  %7 = zext i32 %6 to i64
  %8 = shl i64 1, %7
  ret i64 %8
}

; Function Attrs: nounwind sspstrong uwtable
define hidden void @rb_st_compact_table(ptr noundef %0) #0 {
  %2 = alloca ptr, align 8
  %3 = alloca i64, align 8
  %4 = alloca ptr, align 8
  store ptr %0, ptr %2, align 8, !tbaa !7
  call void @llvm.lifetime.start.p0(i64 8, ptr %3) #23
  %5 = load ptr, ptr %2, align 8, !tbaa !7
  %6 = getelementptr inbounds nuw %struct.st_table, ptr %5, i32 0, i32 5
  %7 = load i64, ptr %6, align 8, !tbaa !32
  store i64 %7, ptr %3, align 8, !tbaa !14
  %8 = load i64, ptr %3, align 8, !tbaa !14
  %9 = mul i64 4, %8
  %10 = load ptr, ptr %2, align 8, !tbaa !7
  %11 = call i64 @get_allocated_entries(ptr noundef %10)
  %12 = icmp ule i64 %9, %11
  br i1 %12, label %13, label %25

13:                                               ; preds = %1
  call void @llvm.lifetime.start.p0(i64 8, ptr %4) #23
  %14 = load ptr, ptr %2, align 8, !tbaa !7
  %15 = getelementptr inbounds nuw %struct.st_table, ptr %14, i32 0, i32 4
  %16 = load ptr, ptr %15, align 8, !tbaa !18
  %17 = load i64, ptr %3, align 8, !tbaa !14
  %18 = mul i64 2, %17
  %19 = call ptr @rb_st_init_table_with_size(ptr noundef %16, i64 noundef %18)
  store ptr %19, ptr %4, align 8, !tbaa !7
  %20 = load ptr, ptr %4, align 8, !tbaa !7
  %21 = load ptr, ptr %2, align 8, !tbaa !7
  call void @rebuild_table_with(ptr noundef %20, ptr noundef %21)
  %22 = load ptr, ptr %4, align 8, !tbaa !7
  %23 = load ptr, ptr %2, align 8, !tbaa !7
  call void @rebuild_move_table(ptr noundef %22, ptr noundef %23)
  %24 = load ptr, ptr %2, align 8, !tbaa !7
  call void @rebuild_cleanup(ptr noundef %24)
  call void @llvm.lifetime.end.p0(i64 8, ptr %4) #23
  br label %25

25:                                               ; preds = %13, %1
  call void @llvm.lifetime.end.p0(i64 8, ptr %3) #23
  ret void
}