; Function Attrs: nounwind sspstrong uwtable
define hidden void @rb_st_compact_table(ptr noundef captures(none) %0) local_unnamed_addr #0 {
  %2 = getelementptr inbounds nuw i8, ptr %0, i64 16
  %3 = load i64, ptr %2, align 8, !tbaa !27
  %4 = shl i64 %3, 2
  %.val = load i8, ptr %0, align 8, !tbaa !18
  %5 = zext nneg i8 %.val to i64
  %6 = shl nuw i64 1, %5
  %.not = icmp ugt i64 %4, %6
  br i1 %.not, label %34, label %7

7:                                                ; preds = %1
  %8 = getelementptr inbounds nuw i8, ptr %0, i64 8
  %9 = load ptr, ptr %8, align 8, !tbaa !11
  %10 = shl i64 %3, 1
  %11 = tail call noalias nonnull dereferenceable(56) ptr @ruby_xmalloc(i64 noundef 56) #24
  %12 = tail call ptr @rb_st_init_existing_table_with_size(ptr noundef nonnull %11, ptr noundef %9, i64 noundef %10)
  tail call fastcc void @rebuild_table_with(ptr noundef nonnull %11, ptr noundef nonnull %0)
  %13 = load i8, ptr %11, align 8, !tbaa !18
  store i8 %13, ptr %0, align 8, !tbaa !18
  %14 = getelementptr inbounds nuw i8, ptr %11, i64 1
  %15 = load i8, ptr %14, align 1, !tbaa !21
  %16 = getelementptr inbounds nuw i8, ptr %0, i64 1
  store i8 %15, ptr %16, align 1, !tbaa !21
  %17 = getelementptr inbounds nuw i8, ptr %11, i64 2
  %18 = load i8, ptr %17, align 2, !tbaa !23
  %19 = getelementptr inbounds nuw i8, ptr %0, i64 2
  store i8 %18, ptr %19, align 2, !tbaa !23
  %20 = getelementptr inbounds nuw i8, ptr %0, i64 24
  %21 = load ptr, ptr %20, align 8, !tbaa !25
  tail call void @ruby_xfree(ptr noundef %21) #25
  %22 = getelementptr inbounds nuw i8, ptr %11, i64 24
  %23 = load ptr, ptr %22, align 8, !tbaa !25
  store ptr %23, ptr %20, align 8, !tbaa !25
  %24 = getelementptr inbounds nuw i8, ptr %0, i64 48
  %25 = load ptr, ptr %24, align 8, !tbaa !26
  tail call void @ruby_xfree(ptr noundef %25) #25
  %26 = getelementptr inbounds nuw i8, ptr %11, i64 48
  %27 = load ptr, ptr %26, align 8, !tbaa !26
  store ptr %27, ptr %24, align 8, !tbaa !26
  tail call void @ruby_xfree(ptr noundef nonnull %11) #25
  %28 = getelementptr inbounds nuw i8, ptr %0, i64 32
  store i64 0, ptr %28, align 8, !tbaa !32
  %29 = load i64, ptr %2, align 8, !tbaa !27
  %30 = getelementptr inbounds nuw i8, ptr %0, i64 40
  store i64 %29, ptr %30, align 8, !tbaa !31
  %31 = getelementptr inbounds nuw i8, ptr %0, i64 4
  %32 = load i32, ptr %31, align 4, !tbaa !28
  %33 = add i32 %32, 1
  store i32 %33, ptr %31, align 4, !tbaa !28
  br label %34

34:                                               ; preds = %7, %1
  ret void
}